L0472:       equ  0472h
L0537:       equ  0537h
L07BD:       equ  07BDh
L099B:       equ  099Bh
L0F4B:       equ  0F4Bh
L4006:       equ  4006h
L400C:       equ  400Ch
L4025:       equ  4025h


             org 0066h


0066 L0066:
0066 08           EX   AF,AF' 
0067 3C           INC  A      
0068 FA 6D 00     JP   M,L006D 
006B 28 02        JR   Z,L006F 
006D L006D:
006D 08           EX   AF,AF' 
006E C9           RET         
006F L006F:
006F 08           EX   AF,AF' 
0070 F5           PUSH AF     
0071 C5           PUSH BC     
0072 D5           PUSH DE     
0073 E5           PUSH HL     
0074 2A 0C 40     LD   HL,(L400C) 
0077 CB FC        SET  7,H    
0079 76           HALT        
007A D3 FD        OUT  (00FDh),A 
007C DD E9        JP   (IX)   


007E 3F           defb 3Fh    
007F 3D           defb 3Dh    
0080 28           defb 28h    
0081 3B           defb 3Bh    
0082 26           defb 26h    
0083 38           defb 38h    
0084 29           defb 29h    
0085 2B           defb 2Bh    
0086 2C           defb 2Ch    
0087 36           defb 36h    
0088 3C           defb 3Ch    
0089 2A           defb 2Ah    
008A 37           defb 37h    
008B 39           defb 39h    
008C 1D           defb 1Dh    
008D 1E           defb 1Eh    
008E 1F           defb 1Fh    
008F 20           defb 20h    
0090 21           defb 21h    
0091 1C           defb 1Ch    
0092 25           defb 25h    
0093 24           defb 24h    
0094 23           defb 23h    
0095 22           defb 22h    
0096 35           defb 35h    
0097 34           defb 34h    
0098 2E           defb 2Eh    
0099 3A           defb 3Ah    
009A 3E           defb 3Eh    
009B 76           defb 76h    
009C 31           defb 31h    
009D 30           defb 30h    
009E 2F           defb 2Fh    
009F 2D           defb 2Dh    
00A0 00           defb 00h    
00A1 1B           defb 1Bh    
00A2 32           defb 32h    
00A3 33           defb 33h    
00A4 27           defb 27h    
00A5 0E           defb 0Eh    
00A6 19           defb 19h    
00A7 0F           defb 0Fh    
00A8 18           defb 18h    
00A9 E3           defb E3h    
00AA E1           defb E1h    
00AB E4           defb E4h    
00AC E5           defb E5h    
00AD E2           defb E2h    
00AE C0           defb C0h    
00AF D9           defb D9h    
00B0 E0           defb E0h    
00B1 DB           defb DBh    
00B2 DD           defb DDh    
00B3 75           defb 75h    
00B4 DA           defb DAh    
00B5 DE           defb DEh    
00B6 DF           defb DFh    
00B7 72           defb 72h    
00B8 77           defb 77h    
00B9 74           defb 74h    
00BA 73           defb 73h    
00BB 70           defb 70h    
00BC 71           defb 71h    
00BD 0B           defb 0Bh    
00BE 11           defb 11h    
00BF 10           defb 10h    
00C0 0D           defb 0Dh    
00C1 DC           defb DCh    
00C2 79           defb 79h    
00C3 14           defb 14h    
00C4 15           defb 15h    
00C5 16           defb 16h    
00C6 D8           defb D8h    
00C7 0C           defb 0Ch    
00C8 1A           defb 1Ah    
00C9 12           defb 12h    


             org 04CFh
04CF L04CF:
04CF CB 46        BIT  0,(HL) 
04D1 28 FC        JR   Z,L04CF 
04D3 ED 4B 25 40  LD   BC,(L4025) 
04D7 CD 4B 0F     CALL L0F4B  
04DA CD BD 07     CALL L07BD  
04DD 30 93        JR   NC,L0472 
04DF 3A 06 40     LD   A,(L4006) 
04E2 3D           DEC  A      
04E3 FA 08 05     JP   M,L0508 
04E6 20 0F        JR   NZ,L04F7 
04E8 32 06 40     LD   (L4006),A 
04EB 1D           DEC  E      
04EC 7B           LD   A,E    
04ED D6 27        SUB  27h    
04EF 38 01        JR   C,L04F2 
04F1 5F           LD   E,A    
04F2 L04F2:
04F2 21 CC 00     LD   HL,00CCh 
04F5 18 0E        JR   L0505  
04F7 L04F7:
04F7 7E           LD   A,(HL) 
04F8 FE 76        CP   76h    
04FA 28 2F        JR   Z,L052B 
04FC FE 40        CP   40h    
04FE CB FF        SET  7,A    
0500 38 19        JR   C,L051B 
0502 21 C7 00     LD   HL,00C7h 
0505 L0505:
0505 19           ADD  HL,DE  
0506 18 0D        JR   L0515  


0508 L0508:
0508 7E           LD   A,(HL) 
0509 FD CB 01 56  BIT  2,(IY+1) 
050D 20 07        JR   NZ,L0516 
050F C6 C0        ADD  A,C0h  
0511 FE E6        CP   E6h    
0513 30 01        JR   NC,L0516 
0515 L0515:
0515 7E           LD   A,(HL) 
0516 L0516:
0516 FE F0        CP   F0h    
0518 EA 2D 05     JP   PE,L052D 
051B L051B:
051B 5F           LD   E,A    
051C CD 37 05     CALL L0537  
051F 7B           LD   A,E    
0520 CD 26 05     CALL L0526  
0523 C3 72 04     JP   L0472  


0526 L0526:
0526 CD 9B 09     CALL L099B  
0529 12           LD   (DE),A 
052A C9           RET         


052B L052B:
052B 3E 78        LD   A,78h  


052D L052D:
052D 5F           LD   E,A    
052E 21 82 04     LD   HL,0482h 
0531 19           ADD  HL,DE  
0532 19           ADD  HL,DE  