L0008:       equ  0008h
L0010:       equ  0010h
L0028:       equ  0028h
L066C:       equ  066Ch
L07EB:       equ  07EBh
L0871:       equ  0871h
L0918:       equ  0918h
L0CC1:       equ  0CC1h
L0D1D:       equ  0D1Dh
L0F46:       equ  0F46h
L0F55:       equ  0F55h
L14A3:       equ  14A3h
L4000:       equ  4000h
L4007:       equ  4007h
L4029:       equ  4029h
L402B:       equ  402Bh
L4030:       equ  4030h
L41EB:       equ  41EBh
L41ED:       equ  41EDh


             org 0673h


0673 L0673:
0673 CD C1 0C     CALL L0CC1  
0676 FD CB 01 8E  RES  1,(IY+1) 
067A 3E C0        LD   A,C0h  
067C FD 77 19     LD   (IY+25),A 
067F CD A3 14     CALL L14A3  
0682 FD CB 2D AE  RES  5,(IY+45) 
0686 FD CB 00 7E  BIT  7,(IY+0) 
068A 28 22        JR   Z,L06AE 
068C 2A 29 40     LD   HL,(L4029) 
068F A6           AND  (HL)   
0690 20 1C        JR   NZ,L06AE 
0692 56           LD   D,(HL) 
0693 23           INC  HL     
0694 5E           LD   E,(HL) 
0695 ED 53 07 40  LD   (L4007),DE 
0699 23           INC  HL     
069A 5E           LD   E,(HL) 
069B 23           INC  HL     
069C 56           LD   D,(HL) 
069D 23           INC  HL     
069E EB           EX   DE,HL  
069F 19           ADD  HL,DE  
06A0 CD 46 0F     CALL L0F46  
06A3 38 C7        JR   C,L066C 
06A5 21 00 40     LD   HL,4000h 
06A8 CB 7E        BIT  7,(HL) 
06AA 28 02        JR   Z,L06AE 
06AC 36 0C        LD   (HL),0Ch 
06AE L06AE:
06AE FD CB 38 7E  BIT  7,(IY+56) 
06B2 CC 71 08     CALL Z,L0871 
06B5 01 21 01     LD   BC,0121h 
06B8 CD 18 09     CALL L0918  
06BB 3A 00 40     LD   A,(L4000) 
06BE ED 4B 07 40  LD   BC,(L4007) 
06C2 3C           INC  A      
06C3 28 0C        JR   Z,L06D1 
06C5 FE 09        CP   09h    
06C7 20 01        JR   NZ,L06CA 
06C9 03           INC  BC     
06CA L06CA:
06CA ED 43 2B 40  LD   (L402B),BC 
06CE 20 01        JR   NZ,L06D1 
06D0 0B           DEC  BC     
06D1 L06D1:
06D1 CD EB 07     CALL L07EB  
06D4 3E 18        LD   A,18h  
06D6 D7           RST  10h    


             org 0D2Ah


0D2A L0D2A:
0D2A CD 9C 0D     CALL L0D9C  
0D2D BF           CP   A      
0D2E C1           POP  BC     
0D2F CC 1D 0D     CALL Z,L0D1D 
0D32 EB           EX   DE,HL  
0D33 2A 30 40     LD   HL,(L4030) 
0D36 4E           LD   C,(HL) 
0D37 23           INC  HL     
0D38 46           LD   B,(HL) 
0D39 EB           EX   DE,HL  
0D3A C5           PUSH BC     
0D3B C9           RET         


0D3C CD           defb CDh    
0D3D 1C           defb 1Ch    
0D3E 11           defb 11h    
0D3F FD           defb FDh    
0D40 36           defb 36h    
0D41 2D           defb 2Dh    
0D42 00           defb 00h    
0D43 30           defb 30h    
0D44 08           defb 08h    
0D45 FD           defb FDh    
0D46 CB           defb CBh    
0D47 2D           defb 2Dh    
0D48 CE           defb CEh    
0D49 20           defb 20h    
0D4A 18           defb 18h    
0D4B CF           defb CFh    
0D4C 01           defb 01h    
0D4D CC           defb CCh    
0D4E A7           defb A7h    
0D4F 11           defb 11h    
0D50 FD           defb FDh    
0D51 CB           defb CBh    
0D52 01           defb 01h    
0D53 76           defb 76h    
0D54 20           defb 20h    
0D55 0D           defb 0Dh    
0D56 AF           defb AFh    
0D57 CD           defb CDh    
0D58 A6           defb A6h    
0D59 0D           defb 0Dh    
0D5A C4           defb C4h    
0D5B F8           defb F8h    
0D5C 13           defb 13h    
0D5D 21           defb 21h    
0D5E 2D           defb 2Dh    
0D5F 40           defb 40h    
0D60 B6           defb B6h    
0D61 77           defb 77h    
0D62 EB           defb EBh    
0D63 ED           defb EDh    
0D64 43           defb 43h    
0D65 2E           defb 2Eh    
0D66 40           defb 40h    
0D67 22           defb 22h    
0D68 12           defb 12h    
0D69 40           defb 40h    
0D6A C9           defb C9h    
0D6B C1           defb C1h    
0D6C 3A           defb 3Ah    
0D6D 01           defb 01h    
0D6E 40           defb 40h    
0D6F F5           defb F5h    
0D70 CD           defb CDh    
0D71 55           defb 55h    
0D72 0F           defb 0Fh    
0D73 F1           defb F1h    
0D74 01           defb 01h    
0D75 21           defb 21h    
0D76 13           defb 13h    
0D77 FD           defb FDh    
0D78 56           defb 56h    
0D79 01           defb 01h    
0D7A AA           defb AAh    
0D7B E6           defb E6h    
0D7C 40           defb 40h    
0D7D 20           defb 20h    
0D7E 1B           defb 1Bh    
0D7F CB           defb CBh    
0D80 7A           defb 7Ah    
0D81 20           defb 20h    
0D82 B7           defb B7h    
0D83 18           defb 18h    
0D84 9D           defb 9Dh    
0D85 CD           defb CDh    
0D86 1C           defb 1Ch    
0D87 11           defb 11h    
0D88 F5           defb F5h    
0D89 79           defb 79h    
0D8A F6           defb F6h    
0D8B 9F           defb 9Fh    
0D8C 3C           defb 3Ch    
0D8D 20           defb 20h    


             org 0D92h


0D92 L0D92:
0D92 CD 55 0F     CALL L0F55  
0D95 FD CB 01 76  BIT  6,(IY+1) 
0D99 C0           RET  NZ     
0D9A CF 0B        RST  08h,0Bh 


0D9C L0D9C:
0D9C 20 F4        JR   NZ,L0D92 
0D9E CD A6 0D     CALL L0DA6  
0DA1 C8           RET  Z      
0DA2 EF           RST  28h    
0DA3 A0           AND  B      
0DA4 34           INC  (HL)   
0DA5 C9           RET         


0DA6 L0DA6:
0DA6 FD CB 01 7E  BIT  7,(IY+1) 
0DAA C9           RET         


0DAB CD           defb CDh    
0DAC A6           defb A6h    
0DAD 0D           defb 0Dh    
0DAE 28           defb 28h    
0DAF 06           defb 06h    
0DB0 EF           defb EFh    
0DB1 02           defb 02h    
0DB2 34           defb 34h    
0DB3 1A           defb 1Ah    
0DB4 A7           defb A7h    
0DB5 C8           defb C8h    
0DB6 C3           defb C3h    
0DB7 DE           defb DEh    
0DB8 0C           defb 0Ch    
0DB9 FE           defb FEh    
0DBA E0           defb E0h    
0DBB 20           defb 20h    
0DBC 09           defb 09h    
0DBD E7           defb E7h    
0DBE CD           defb CDh    
0DBF 92           defb 92h    
0DC0 0D           defb 0Dh    
0DC1 CD           defb CDh    
0DC2 1D           defb 1Dh    
0DC3 0D           defb 0Dh    
0DC4 18           defb 18h    
0DC5 06           defb 06h    
0DC6 CD           defb CDh    
0DC7 1D           defb 1Dh    
0DC8 0D           defb 0Dh    
0DC9 EF           defb EFh    
0DCA A1           defb A1h    
0DCB 34           defb 34h    
0DCC EF           defb EFh    
0DCD C0           defb C0h    
0DCE 02           defb 02h    
0DCF 01           defb 01h    
0DD0 E0           defb E0h    
0DD1 01           defb 01h    
0DD2 34           defb 34h    
0DD3 CD           defb CDh    
0DD4 21           defb 21h    
0DD5 13           defb 13h    
0DD6 22           defb 22h    
0DD7 1F           defb 1Fh    
0DD8 40           defb 40h    
0DD9 2B           defb 2Bh    
0DDA 7E           defb 7Eh    
0DDB CB           defb CBh    
0DDC FE           defb FEh    
0DDD 01           defb 01h    
0DDE 06           defb 06h    
0DDF 00           defb 00h    
0DE0 09           defb 09h    
0DE1 07           defb 07h    
0DE2 38           defb 38h    
0DE3 06           defb 06h    
0DE4 CB           defb CBh    
0DE5 21           defb 21h    
0DE6 CD           defb CDh    
0DE7 9E           defb 9Eh    
0DE8 09           defb 09h    
0DE9 23           defb 23h    
0DEA E5           defb E5h    
0DEB EF           defb EFh    
0DEC 02           defb 02h    
0DED 02           defb 02h    
0DEE 34           defb 34h    
0DEF E1           defb E1h    
0DF0 EB           defb EBh    
0DF1 0E           defb 0Eh    
0DF2 0A           defb 0Ah    
0DF3 ED           defb EDh    
0DF4 B0           defb B0h    
0DF5 2A           defb 2Ah    


             org 41EFh


41EF L41EF:
41EF 23           INC  HL     
41F0 13           INC  DE     
41F1 0D           DEC  C      
41F2 C2 ED 41     JP   NZ,L41ED 
41F5 D5           PUSH DE     
41F6 11 15 00     LD   DE,0015h 
41F9 ED 5A        ADC  HL,DE  
41FB D1           POP  DE     
41FC 05           DEC  B      
41FD C2 EB 41     JP   NZ,L41EB 
4200 C9           RET         


4201 21           defb 21h    
4202 85           defb 85h    
4203 40           defb 40h    
4204 06           defb 06h    
4205 17           defb 17h    
4206 0E           defb 0Eh    
4207 0C           defb 0Ch    
4208 71           defb 71h    
4209 23           defb 23h    
420A 0D           defb 0Dh    
420B C2           defb C2h    
420C 08           defb 08h    
420D 42           defb 42h    
420E 05           defb 05h    
420F C2           defb C2h    
4210 06           defb 06h    